target datalayout = "e-m:e-p270:32:32-p271:32:32-p272:64:64-i64:64-i128:128-f80:128-n8:16:32:64-S128"
target triple = "x86_64-pc-linux-gnu"

%struct.wt_status_state = type { i32, i32, i32, i32, i32, i32, i32, i32, i32, i32, ptr, ptr, ptr, ptr, %struct.object_id, %struct.object_id, %struct.object_id }
%struct.object_id = type { [32 x i8], i32 }
%struct.stat = type { i64, i64, i64, i32, i32, i32, i32, i64, i64, i64, i64, %struct.timespec, %struct.timespec, %struct.timespec, [3 x i64] }
%struct.timespec = type { i64, i64 }

@the_repository = external global ptr, align 8
@.str.20 = private unnamed_addr constant [11 x i8] c"BISECT_LOG\00", align 1
@.str.21 = private unnamed_addr constant [13 x i8] c"BISECT_START\00", align 1

; Function Attrs: nounwind uwtable
define dso_local i32 @wt_status_check_bisect(ptr noundef %0, ptr noundef %1) #0 {
  %3 = alloca i32, align 4
  %4 = alloca ptr, align 8
  %5 = alloca ptr, align 8
  %6 = alloca %struct.stat, align 8
  %7 = alloca i32, align 4
  store ptr %0, ptr %4, align 8, !tbaa !189
  store ptr %1, ptr %5, align 8, !tbaa !174
  call void @llvm.lifetime.start.p0(i64 144, ptr %6) #12
  %8 = load ptr, ptr @the_repository, align 8, !tbaa !33
  %9 = load ptr, ptr %4, align 8, !tbaa !189
  %10 = call ptr (ptr, ptr, ptr, ...) @worktree_git_path(ptr noundef %8, ptr noundef %9, ptr noundef @.str.20)
  %11 = call i32 @stat64(ptr noundef %10, ptr noundef %6) #12
  %12 = icmp ne i32 %11, 0
  br i1 %12, label %20, label %13

13:                                               ; preds = %2
  %14 = load ptr, ptr %5, align 8, !tbaa !174
  %15 = getelementptr inbounds nuw %struct.wt_status_state, ptr %14, i32 0, i32 6
  store i32 1, ptr %15, align 8, !tbaa !199
  %16 = load ptr, ptr %4, align 8, !tbaa !189
  %17 = call ptr @get_branch(ptr noundef %16, ptr noundef @.str.21)
  %18 = load ptr, ptr %5, align 8, !tbaa !174
  %19 = getelementptr inbounds nuw %struct.wt_status_state, ptr %18, i32 0, i32 13
  store ptr %17, ptr %19, align 8, !tbaa !185
  store i32 1, ptr %3, align 4
  store i32 1, ptr %7, align 4
  br label %21

20:                                               ; preds = %2
  store i32 0, ptr %3, align 4
  store i32 1, ptr %7, align 4
  br label %21

21:                                               ; preds = %20, %13
  call void @llvm.lifetime.end.p0(i64 144, ptr %6) #12
  %22 = load i32, ptr %3, align 4
  ret i32 %22
}