; Function Attrs: nounwind uwtable
define dso_local range(i32 0, 2) i32 @wt_status_check_bisect(ptr noundef %0, ptr noundef writeonly captures(none) %1) local_unnamed_addr #0 {
  %3 = alloca %struct.stat, align 8
  call void @llvm.lifetime.start.p0(i64 144, ptr nonnull %3) #20
  %4 = load ptr, ptr @the_repository, align 8, !tbaa !33
  %5 = tail call ptr (ptr, ptr, ptr, ...) @worktree_git_path(ptr noundef %4, ptr noundef %0, ptr noundef nonnull @.str.20) #20
  %6 = call i32 @stat64(ptr noundef %5, ptr noundef nonnull %3) #20
  %.not = icmp eq i32 %6, 0
  br i1 %.not, label %7, label %11

7:                                                ; preds = %2
  %8 = getelementptr inbounds nuw i8, ptr %1, i64 24
  store i32 1, ptr %8, align 8, !tbaa !170
  %9 = tail call fastcc ptr @get_branch(ptr noundef %0, ptr noundef nonnull @.str.21)
  %10 = getelementptr inbounds nuw i8, ptr %1, i64 64
  store ptr %9, ptr %10, align 8, !tbaa !171
  br label %11

11:                                               ; preds = %2, %7
  %.0 = phi i32 [ 1, %7 ], [ 0, %2 ]
  call void @llvm.lifetime.end.p0(i64 144, ptr nonnull %3) #20
  ret i32 %.0
}